target datalayout = "e-m:e-p270:32:32-p271:32:32-p272:64:64-i64:64-i128:128-f80:128-n8:16:32:64-S128"
target triple = "x86_64-unknown-linux-gnu"

%struct.dentry_operations = type { ptr, ptr, ptr, ptr, ptr, ptr, ptr, ptr, ptr, ptr, ptr, ptr, ptr, [24 x i8] }
%struct.tracepoint = type { ptr, %struct.static_key, ptr, ptr, ptr, ptr, ptr, ptr, ptr }
%struct.static_key = type { %struct.atomic_t, %union.anon.12 }
%struct.atomic_t = type { i32 }
%union.anon.12 = type { i64 }

@v9fs_cached_dentry_operations = dso_local local_unnamed_addr constant %struct.dentry_operations { ptr @v9fs_lookup_revalidate, ptr @v9fs_lookup_revalidate, ptr null, ptr null, ptr @v9fs_cached_dentry_delete, ptr null, ptr @v9fs_dentry_release, ptr null, ptr null, ptr null, ptr null, ptr null, ptr null, [24 x i8] undef }, align 64
@v9fs_dentry_operations = dso_local local_unnamed_addr constant %struct.dentry_operations { ptr null, ptr null, ptr null, ptr null, ptr @always_delete_dentry, ptr null, ptr @v9fs_dentry_release, ptr null, ptr null, ptr null, ptr null, ptr null, ptr null, [24 x i8] undef }, align 64
@__tracepoint_9p_fid_ref = external dso_local global %struct.tracepoint, align 8

; Function Attrs: fn_ret_thunk_extern nounwind null_pointer_is_valid
define internal i32 @v9fs_lookup_revalidate(ptr noundef %0, i32 noundef %1) #0 align 16 {
  %3 = and i32 %1, 64
  %4 = icmp eq i32 %3, 0
  br i1 %4, label %5, label %56

5:                                                ; preds = %2
  %6 = getelementptr inbounds i8, ptr %0, i64 48
  %7 = load ptr, ptr %6, align 8
  %8 = icmp eq ptr %7, null
  br i1 %8, label %55, label %9

9:                                                ; preds = %5
  %10 = getelementptr inbounds i8, ptr %7, i64 648
  %11 = load i32, ptr %10, align 8
  %12 = and i32 %11, 1
  %13 = icmp eq i32 %12, 0
  br i1 %13, label %55, label %14

14:                                               ; preds = %9
  %15 = tail call ptr @v9fs_fid_lookup(ptr noundef %0) #3
  %16 = icmp ugt ptr %15, inttoptr (i64 -4096 to ptr)
  br i1 %16, label %17, label %20

17:                                               ; preds = %14
  %18 = ptrtoint ptr %15 to i64
  %19 = trunc i64 %18 to i32
  br label %52

20:                                               ; preds = %14
  %21 = getelementptr inbounds i8, ptr %7, i64 40
  %22 = load ptr, ptr %21, align 8
  %23 = getelementptr inbounds i8, ptr %22, i64 872
  %24 = load ptr, ptr %23, align 8
  %25 = load i32, ptr %24, align 8
  %26 = and i32 %25, 2
  %27 = icmp eq i32 %26, 0
  br i1 %27, label %30, label %28

28:                                               ; preds = %20
  %29 = tail call i32 @v9fs_refresh_inode_dotl(ptr noundef %15, ptr noundef nonnull %7) #3
  br label %32

30:                                               ; preds = %20
  %31 = tail call i32 @v9fs_refresh_inode(ptr noundef %15, ptr noundef nonnull %7) #3
  br label %32

32:                                               ; preds = %30, %28
  %33 = phi i32 [ %29, %28 ], [ %31, %30 ]
  %34 = icmp eq ptr %15, null
  br i1 %34, label %48, label %35

35:                                               ; preds = %32
  callbr void asm sideeffect "1:jmp ${2:l} # objtool NOPs this \0A\09.pushsection __jump_table,  \22aw\22 \0A\09 .balign 8 \0A\09.long 1b - . \0A\09.long ${2:l} - . \0A\09 .quad ${0:c} + ${1:c} - .\0A\09.popsection \0A\09", "i,i,!i,~{dirflag},~{fpsr},~{flags}"(ptr nonnull getelementptr inbounds (%struct.tracepoint, ptr @__tracepoint_9p_fid_ref, i64 0, i32 1), i32 2) #3
          to label %37 [label %36], !srcloc !5

36:                                               ; preds = %35
  tail call void @do_trace_9p_fid_put(ptr noundef nonnull %15) #3
  br label %37

37:                                               ; preds = %36, %35
  %38 = getelementptr inbounds i8, ptr %15, i64 12
  %39 = tail call i32 asm sideeffect ".pushsection .smp_locks,\22a\22\0A.balign 4\0A.long 671f - .\0A.popsection\0A671:\0A\09lock; xaddl $0, $1\0A", "=r,=*m,0,*m,~{memory},~{cc},~{dirflag},~{fpsr},~{flags}"(ptr elementtype(i32) %38, i32 -1, ptr elementtype(i32) %38) #3, !srcloc !6
  %40 = icmp eq i32 %39, 1
  br i1 %40, label %41, label %42

41:                                               ; preds = %37
  tail call void asm sideeffect "", "~{memory},~{dirflag},~{fpsr},~{flags}"() #3, !srcloc !7
  br label %45

42:                                               ; preds = %37
  %43 = icmp sgt i32 %39, 0
  br i1 %43, label %45, label %44, !prof !8

44:                                               ; preds = %42
  tail call void @refcount_warn_saturate(ptr noundef %38, i32 noundef 3) #3
  br label %45

45:                                               ; preds = %44, %42, %41
  br i1 %40, label %46, label %48

46:                                               ; preds = %45
  %47 = tail call i32 @p9_client_clunk(ptr noundef nonnull %15) #3
  br label %48

48:                                               ; preds = %46, %45, %32
  %49 = icmp eq i32 %33, -2
  %50 = icmp sgt i32 %33, -1
  %51 = select i1 %49, i32 0, i32 %33
  br label %52

52:                                               ; preds = %48, %17
  %53 = phi i32 [ %19, %17 ], [ %51, %48 ]
  %54 = phi i1 [ false, %17 ], [ %50, %48 ]
  br i1 %54, label %55, label %56

55:                                               ; preds = %52, %9, %5
  br label %56

56:                                               ; preds = %55, %52, %2
  %57 = phi i32 [ 1, %55 ], [ %53, %52 ], [ -10, %2 ]
  ret i32 %57
}

; Function Attrs: fn_ret_thunk_extern mustprogress nofree norecurse nosync nounwind null_pointer_is_valid willreturn memory(argmem: read)
define internal i32 @v9fs_cached_dentry_delete(ptr nocapture noundef readonly %0) #1 align 16 {
  %2 = getelementptr inbounds i8, ptr %0, i64 48
  %3 = load ptr, ptr %2, align 8
  %4 = icmp eq ptr %3, null
  %5 = zext i1 %4 to i32
  ret i32 %5
}

; Function Attrs: fn_ret_thunk_extern nounwind null_pointer_is_valid
define internal void @v9fs_dentry_release(ptr nocapture noundef %0) #0 align 16 {
  %2 = getelementptr inbounds i8, ptr %0, i64 128
  %3 = load ptr, ptr %2, align 8
  %4 = icmp eq ptr %3, null
  br i1 %4, label %27, label %5

5:                                                ; preds = %25, %1
  %6 = phi ptr [ %7, %25 ], [ %3, %1 ]
  %7 = load ptr, ptr %6, align 8
  %8 = getelementptr i8, ptr %6, i64 -56
  %9 = icmp eq ptr %8, null
  %10 = icmp ugt ptr %8, inttoptr (i64 -4096 to ptr)
  %11 = or i1 %9, %10
  br i1 %11, label %25, label %12

12:                                               ; preds = %5
  callbr void asm sideeffect "1:jmp ${2:l} # objtool NOPs this \0A\09.pushsection __jump_table,  \22aw\22 \0A\09 .balign 8 \0A\09.long 1b - . \0A\09.long ${2:l} - . \0A\09 .quad ${0:c} + ${1:c} - .\0A\09.popsection \0A\09", "i,i,!i,~{dirflag},~{fpsr},~{flags}"(ptr nonnull getelementptr inbounds (%struct.tracepoint, ptr @__tracepoint_9p_fid_ref, i64 0, i32 1), i32 2) #3
          to label %14 [label %13], !srcloc !5

13:                                               ; preds = %12
  tail call void @do_trace_9p_fid_put(ptr noundef nonnull %8) #3
  br label %14

14:                                               ; preds = %13, %12
  %15 = getelementptr i8, ptr %6, i64 -44
  %16 = tail call i32 asm sideeffect ".pushsection .smp_locks,\22a\22\0A.balign 4\0A.long 671f - .\0A.popsection\0A671:\0A\09lock; xaddl $0, $1\0A", "=r,=*m,0,*m,~{memory},~{cc},~{dirflag},~{fpsr},~{flags}"(ptr elementtype(i32) %15, i32 -1, ptr elementtype(i32) %15) #3, !srcloc !6
  %17 = icmp eq i32 %16, 1
  br i1 %17, label %18, label %19

18:                                               ; preds = %14
  tail call void asm sideeffect "", "~{memory},~{dirflag},~{fpsr},~{flags}"() #3, !srcloc !7
  br label %22

19:                                               ; preds = %14
  %20 = icmp sgt i32 %16, 0
  br i1 %20, label %22, label %21, !prof !8

21:                                               ; preds = %19
  tail call void @refcount_warn_saturate(ptr noundef %15, i32 noundef 3) #3
  br label %22

22:                                               ; preds = %21, %19, %18
  br i1 %17, label %23, label %25

23:                                               ; preds = %22
  %24 = tail call i32 @p9_client_clunk(ptr noundef nonnull %8) #3
  br label %25

25:                                               ; preds = %23, %22, %5
  %26 = icmp eq ptr %7, null
  br i1 %26, label %27, label %5, !llvm.loop !9

27:                                               ; preds = %25, %1
  store ptr null, ptr %2, align 8
  ret void
}

; Function Attrs: null_pointer_is_valid
declare dso_local i32 @always_delete_dentry(ptr noundef) #2

; Function Attrs: null_pointer_is_valid
declare dso_local ptr @v9fs_fid_lookup(ptr noundef) local_unnamed_addr #2

; Function Attrs: null_pointer_is_valid
declare dso_local i32 @v9fs_refresh_inode_dotl(ptr noundef, ptr noundef) local_unnamed_addr #2

; Function Attrs: null_pointer_is_valid
declare dso_local i32 @v9fs_refresh_inode(ptr noundef, ptr noundef) local_unnamed_addr #2

; Function Attrs: null_pointer_is_valid
declare dso_local void @do_trace_9p_fid_put(ptr noundef) local_unnamed_addr #2

; Function Attrs: null_pointer_is_valid
declare dso_local i32 @p9_client_clunk(ptr noundef) local_unnamed_addr #2

; Function Attrs: null_pointer_is_valid
declare dso_local void @refcount_warn_saturate(ptr noundef, i32 noundef) local_unnamed_addr #2


!llvm.module.flags = !{!0, !1, !2, !3, !4}

!0 = !{i32 1, !"wchar_size", i32 2}
!1 = !{i32 8, !"cf-protection-branch", i32 1}
!2 = !{i32 4, !"function_return_thunk_extern", i32 1}
!3 = !{i32 4, !"indirect_branch_cs_prefix", i32 1}
!4 = !{i32 4, !"SkipRaxSetup", i32 1}
!5 = !{i64 669031, i64 669075, i64 2148153758, i64 2148153779, i64 2148153805, i64 2148153838, i64 2148153872, i64 2148153896}
!6 = !{i64 2148821792, i64 2148821831, i64 2148821852, i64 2148821889, i64 2148821912, i64 2148821921}
!7 = !{i64 2150348142}
!8 = !{!"branch_weights", i32 2000, i32 1}
!9 = distinct !{!9, !10, !11}
!10 = !{!"llvm.loop.mustprogress"}
!11 = !{!"llvm.loop.unroll.disable"}
